; Function Attrs: nounwind uwtable
define internal range(i32 0, 23) i32 @experimental_utilization_query_ctl(ptr noundef %0, ptr readnone captures(none) %1, i64 %2, ptr noundef %3, ptr noundef readonly captures(address_is_null) %4, ptr noundef readonly captures(address_is_null) %5, i64 noundef %6) #0 {
  %8 = icmp eq ptr %3, null
  %9 = icmp eq ptr %4, null
  %or.cond = or i1 %8, %9
  br i1 %or.cond, label %21, label %10

10:                                               ; preds = %7
  %11 = load i64, ptr %4, align 8, !tbaa !3
  %12 = icmp eq i64 %11, 48
  %13 = icmp ne ptr %5, null
  %or.cond3.not26 = and i1 %13, %12
  %.not = icmp eq i64 %6, 8
  %or.cond23 = and i1 %.not, %or.cond3.not26
  br i1 %or.cond23, label %14, label %21

14:                                               ; preds = %10
  %15 = load ptr, ptr %5, align 8, !tbaa !213
  %16 = getelementptr inbounds nuw i8, ptr %3, i64 8
  %17 = getelementptr inbounds nuw i8, ptr %3, i64 16
  %18 = getelementptr inbounds nuw i8, ptr %3, i64 24
  %19 = getelementptr inbounds nuw i8, ptr %3, i64 32
  %20 = getelementptr inbounds nuw i8, ptr %3, i64 40
  tail call void @duckdb_je_inspect_extent_util_stats_verbose_get(ptr noundef %0, ptr noundef %15, ptr noundef nonnull %16, ptr noundef nonnull %17, ptr noundef nonnull %18, ptr noundef nonnull %19, ptr noundef nonnull %20, ptr noundef nonnull %3) #14
  br label %21

21:                                               ; preds = %7, %10, %14
  %.0 = phi i32 [ 0, %14 ], [ 22, %10 ], [ 22, %7 ]
  ret i32 %.0
}